target datalayout = "e-m:e-p270:32:32-p271:32:32-p272:64:64-i64:64-i128:128-f80:128-n8:16:32:64-S128"
target triple = "x86_64-pc-linux-gnu"

@.str.317 = private unnamed_addr constant [5 x i8] c"pkey\00", align 1

; Function Attrs: nounwind uwtable
define internal i32 @check_MSBLOB(ptr noundef %0, i32 noundef %1, ptr noundef %2, ptr noundef %3, i64 noundef %4) #0 {
  %6 = alloca ptr, align 8
  %7 = alloca i32, align 4
  %8 = alloca ptr, align 8
  %9 = alloca ptr, align 8
  %10 = alloca i64, align 8
  %11 = alloca ptr, align 8
  %12 = alloca ptr, align 8
  %13 = alloca i32, align 4
  store ptr %0, ptr %6, align 8, !tbaa !4
  store i32 %1, ptr %7, align 4, !tbaa !9
  store ptr %2, ptr %8, align 8, !tbaa !4
  store ptr %3, ptr %9, align 8, !tbaa !31
  store i64 %4, ptr %10, align 8, !tbaa !27
  call void @llvm.lifetime.start.p0(i64 8, ptr %11) #7
  %14 = load ptr, ptr %9, align 8, !tbaa !31
  store ptr %14, ptr %11, align 8, !tbaa !4
  call void @llvm.lifetime.start.p0(i64 8, ptr %12) #7
  %15 = load i64, ptr %10, align 8, !tbaa !27
  %16 = call ptr @b2i_PrivateKey(ptr noundef %11, i64 noundef %15)
  store ptr %16, ptr %12, align 8, !tbaa !23
  call void @llvm.lifetime.start.p0(i64 4, ptr %13) #7
  %17 = load ptr, ptr %6, align 8, !tbaa !4
  %18 = load i32, ptr %7, align 4, !tbaa !9
  %19 = load ptr, ptr %12, align 8, !tbaa !23
  %20 = call i32 @test_ptr(ptr noundef %17, i32 noundef %18, ptr noundef @.str.317, ptr noundef %19)
  store i32 %20, ptr %13, align 4, !tbaa !9
  %21 = load ptr, ptr %12, align 8, !tbaa !23
  call void @EVP_PKEY_free(ptr noundef %21)
  %22 = load i32, ptr %13, align 4, !tbaa !9
  call void @llvm.lifetime.end.p0(i64 4, ptr %13) #7
  call void @llvm.lifetime.end.p0(i64 8, ptr %12) #7
  call void @llvm.lifetime.end.p0(i64 8, ptr %11) #7
  ret i32 %22
}